target datalayout = "e-m:e-p270:32:32-p271:32:32-p272:64:64-i64:64-i128:128-f80:128-n8:16:32:64-S128"
target triple = "x86_64-pc-linux-gnu"

%struct.CVodeMemRec = type { ptr, double, ptr, ptr, i32, i32, double, double, ptr, i32, i32, ptr, ptr, i32, i32, ptr, i32, i32, double, double, ptr, i32, i32, i32, i32, ptr, ptr, ptr, i32, i32, ptr, ptr, ptr, i32, double, i32, i32, double, ptr, ptr, ptr, i32, ptr, ptr, i32, i32, i32, double, ptr, ptr, ptr, [13 x ptr], ptr, ptr, ptr, ptr, ptr, ptr, ptr, ptr, ptr, [13 x ptr], ptr, ptr, ptr, ptr, [13 x ptr], ptr, ptr, ptr, ptr, ptr, i32, [13 x ptr], ptr, ptr, ptr, ptr, ptr, i32, i32, double, i32, i32, i32, i32, i32, double, double, double, double, double, double, double, double, [14 x double], [6 x double], [13 x double], double, double, double, double, double, double, double, double, i32, double, double, i32, double, double, ptr, i32, i64, i32, i32, i32, double, double, double, double, double, double, double, double, double, double, double, double, i64, i32, i64, i64, i64, i64, i64, i64, i64, i64, i64, ptr, i64, i64, ptr, i64, i64, ptr, i64, i64, i64, i64, i64, i64, i32, double, double, double, i64, i64, i64, i64, i64, i64, ptr, i32, ptr, i32, ptr, i32, ptr, i32, i32, i64, i32, ptr, i32, ptr, ptr, ptr, ptr, ptr, ptr, i32, i32, ptr, ptr, ptr, ptr, ptr, i64, double, i32, i32, i64, double, double, double, i32, i32, double, i32, i32, i32, i32, i32, i32, i32, i32, i32, i32, i32, i32, i32, i32, i32, i32, ptr, i64, i32, [6 x [4 x double]], i32, i64, ptr, i32, ptr, ptr, double, double, double, ptr, ptr, ptr, double, double, i32, i32, i64, ptr, i32, ptr, i32, i32, [13 x double], ptr, ptr, ptr, i32, ptr, i32 }

@.str = private unnamed_addr constant [119 x i8] c"generated/home/dtcxzyw/WorkSpace/Projects/compilers/llvm-opt-benchmark/bench/sundials/sundials/src/cvodes/cvodes_nls.c\00", align 1
@.str.1 = private unnamed_addr constant [26 x i8] c"cvode_mem = NULL illegal.\00", align 1
@__func__.cvNlsFPFunction = private unnamed_addr constant [16 x i8] c"cvNlsFPFunction\00", align 1

; Function Attrs: nounwind uwtable
define internal i32 @cvNlsFPFunction(ptr noundef %0, ptr noundef %1, ptr noundef %2) #0 {
  %4 = alloca i32, align 4
  %5 = alloca ptr, align 8
  %6 = alloca ptr, align 8
  %7 = alloca ptr, align 8
  %8 = alloca ptr, align 8
  %9 = alloca i32, align 4
  %10 = alloca i32, align 4
  store ptr %0, ptr %5, align 8, !tbaa !36
  store ptr %1, ptr %6, align 8, !tbaa !36
  store ptr %2, ptr %7, align 8, !tbaa !3
  call void @llvm.lifetime.start.p0(i64 8, ptr %8) #3
  call void @llvm.lifetime.start.p0(i64 4, ptr %9) #3
  %11 = load ptr, ptr %7, align 8, !tbaa !3
  %12 = icmp eq ptr %11, null
  br i1 %12, label %13, label %14

13:                                               ; preds = %3
  call void (ptr, i32, i32, ptr, ptr, ptr, ...) @cvProcessError(ptr noundef null, i32 noundef -21, i32 noundef 389, ptr noundef @__func__.cvNlsFPFunction, ptr noundef @.str, ptr noundef @.str.1)
  store i32 -21, ptr %4, align 4
  store i32 1, ptr %10, align 4
  br label %64

14:                                               ; preds = %3
  %15 = load ptr, ptr %7, align 8, !tbaa !3
  store ptr %15, ptr %8, align 8, !tbaa !9
  %16 = load ptr, ptr %8, align 8, !tbaa !9
  %17 = getelementptr inbounds nuw %struct.CVodeMemRec, ptr %16, i32 0, i32 51
  %18 = getelementptr inbounds [13 x ptr], ptr %17, i64 0, i64 0
  %19 = load ptr, ptr %18, align 8, !tbaa !36
  %20 = load ptr, ptr %5, align 8, !tbaa !36
  %21 = load ptr, ptr %8, align 8, !tbaa !9
  %22 = getelementptr inbounds nuw %struct.CVodeMemRec, ptr %21, i32 0, i32 53
  %23 = load ptr, ptr %22, align 8, !tbaa !37
  call void @N_VLinearSum(double noundef 1.000000e+00, ptr noundef %19, double noundef 1.000000e+00, ptr noundef %20, ptr noundef %23)
  %24 = load ptr, ptr %8, align 8, !tbaa !9
  %25 = getelementptr inbounds nuw %struct.CVodeMemRec, ptr %24, i32 0, i32 175
  %26 = load ptr, ptr %25, align 8, !tbaa !35
  %27 = load ptr, ptr %8, align 8, !tbaa !9
  %28 = getelementptr inbounds nuw %struct.CVodeMemRec, ptr %27, i32 0, i32 93
  %29 = load double, ptr %28, align 8, !tbaa !38
  %30 = load ptr, ptr %8, align 8, !tbaa !9
  %31 = getelementptr inbounds nuw %struct.CVodeMemRec, ptr %30, i32 0, i32 53
  %32 = load ptr, ptr %31, align 8, !tbaa !37
  %33 = load ptr, ptr %6, align 8, !tbaa !36
  %34 = load ptr, ptr %8, align 8, !tbaa !9
  %35 = getelementptr inbounds nuw %struct.CVodeMemRec, ptr %34, i32 0, i32 3
  %36 = load ptr, ptr %35, align 8, !tbaa !40
  %37 = call i32 %26(double noundef %29, ptr noundef %32, ptr noundef %33, ptr noundef %36)
  store i32 %37, ptr %9, align 4, !tbaa !32
  %38 = load ptr, ptr %8, align 8, !tbaa !9
  %39 = getelementptr inbounds nuw %struct.CVodeMemRec, ptr %38, i32 0, i32 133
  %40 = load i64, ptr %39, align 8, !tbaa !41
  %41 = add nsw i64 %40, 1
  store i64 %41, ptr %39, align 8, !tbaa !41
  %42 = load i32, ptr %9, align 4, !tbaa !32
  %43 = icmp slt i32 %42, 0
  br i1 %43, label %44, label %45

44:                                               ; preds = %14
  store i32 -8, ptr %4, align 4
  store i32 1, ptr %10, align 4
  br label %64

45:                                               ; preds = %14
  %46 = load i32, ptr %9, align 4, !tbaa !32
  %47 = icmp sgt i32 %46, 0
  br i1 %47, label %48, label %49

48:                                               ; preds = %45
  store i32 10, ptr %4, align 4
  store i32 1, ptr %10, align 4
  br label %64

49:                                               ; preds = %45
  %50 = load ptr, ptr %8, align 8, !tbaa !9
  %51 = getelementptr inbounds nuw %struct.CVodeMemRec, ptr %50, i32 0, i32 88
  %52 = load double, ptr %51, align 8, !tbaa !44
  %53 = load ptr, ptr %6, align 8, !tbaa !36
  %54 = load ptr, ptr %8, align 8, !tbaa !9
  %55 = getelementptr inbounds nuw %struct.CVodeMemRec, ptr %54, i32 0, i32 51
  %56 = getelementptr inbounds [13 x ptr], ptr %55, i64 0, i64 1
  %57 = load ptr, ptr %56, align 8, !tbaa !36
  %58 = load ptr, ptr %6, align 8, !tbaa !36
  call void @N_VLinearSum(double noundef %52, ptr noundef %53, double noundef -1.000000e+00, ptr noundef %57, ptr noundef %58)
  %59 = load ptr, ptr %8, align 8, !tbaa !9
  %60 = getelementptr inbounds nuw %struct.CVodeMemRec, ptr %59, i32 0, i32 98
  %61 = load double, ptr %60, align 8, !tbaa !42
  %62 = load ptr, ptr %6, align 8, !tbaa !36
  %63 = load ptr, ptr %6, align 8, !tbaa !36
  call void @N_VScale(double noundef %61, ptr noundef %62, ptr noundef %63)
  store i32 0, ptr %4, align 4
  store i32 1, ptr %10, align 4
  br label %64

64:                                               ; preds = %49, %48, %44, %13
  call void @llvm.lifetime.end.p0(i64 4, ptr %9) #3
  call void @llvm.lifetime.end.p0(i64 8, ptr %8) #3
  %65 = load i32, ptr %4, align 4
  ret i32 %65
}